; Function Attrs: mustprogress uwtable
define noundef ptr @_ZNK7rocksdb18WritableFileWriter23GetFileChecksumFuncNameEv(ptr noundef nonnull readonly align 8 captures(none) dereferenceable(258) %0) local_unnamed_addr #4 align 2 {
  %2 = getelementptr inbounds nuw i8, ptr %0, i64 240
  %3 = load ptr, ptr %2, align 8, !tbaa !158
  %.not = icmp eq ptr %3, null
  br i1 %.not, label %9, label %4

4:                                                ; preds = %1
  %5 = load ptr, ptr %3, align 8, !tbaa !48
  %6 = getelementptr inbounds nuw i8, ptr %5, i64 40
  %7 = load ptr, ptr %6, align 8
  %8 = tail call noundef ptr %7(ptr noundef nonnull align 8 dereferenceable(8) %3)
  br label %9

9:                                                ; preds = %1, %4
  %.0 = phi ptr [ %8, %4 ], [ @_ZN7rocksdbL28kUnknownFileChecksumFuncNameE, %1 ]
  ret ptr %.0
}